(lp0
S'+ phone jus worth buying guys damn confused before buying phone past exp samsung not great everyday surfing finding new phone phone launched finally decided great configuration price phone smooth smart n classy lets not wat others samsung buy super budgeted phone decide great camera owsm battery backup no hanging heating stuf \r\n'
p1
aS'+ very nice mobile superb good battery backup camera quality awesome screen resolution clarity excellent ram concern gb mb left user rest mobile general features like messaging phonebook etc recommend buy mobile samsung price superb quality worth buy \r\n'
p2
aS'+ writing review using phone days amazingly great camera super battery backup excellent voice clarity good speaker great inch display battery lasted very extensive various apps many calls though ram gb phone worked super fast wise phone looked like expensive k worth rich phone though reality around k super excellent value money \r\n'
p3
aS'+ phone simply awesome drawback battery life though has mah battery still drains faster asus working battery drain issue update delivery took days frustrated got phone frustration gone camera above average k u more needed nfc p design camera s simply awesome \r\n'
p4
aS'+ awesome phone doesn t ear phone assosiries cannot connect net second sim need replace sim connect net \r\n'
p5
aS'+ awesome phone price bought phone week rs cash offer must made very wise decision select phone very smooth battery good screen awesome feel slim although mm easy fit pocket fast option stop auto running app greenify like aweso phone don t phone getting k \r\n'
p6
aS'+ totally awesomme totally awesome phone where find such device nice specs thinking buy new phone asus zenfone totally worth undoubtedly best phone around price range \r\n'
p7
aS'+ product love totally satisfy phone touch superb no hang becoz intel inside camera awesome bug display p awesome clearity \r\n'
p8
aS'+ super hit mobile very nice mobile far yet really good simple elegant brilliant super amoled screen gives stunning mobile gold variant very nice looks pretty decent always brand brand pre installed apps very useful totally mobile excellent \r\n'
p9
aS'+ good phone reasonable cost bought wife phone good looks cover plastic good quality metallic paint has reasonable response decent months usage sufficient no apps being loaded \r\n'
p10
aS'+ excellent phone really excellent product samsung screen performance camera battery everything perfect network wifi good gives very premium feeling worth money thumbs samsung request please bring higher mobile handsets reasonable price range like j \r\n'
p11
aS'+ hardy performing not bought friend almost got phd researching phone obviously delighted reviews buyers came handy technology changing every better hope handy phone next years \r\n'
p12
aS'+ best mobile best mobile ever used batter very good using last months good service flipkart \r\n'
p13
aS'+ good mobile delivery time ws retail good seller purchased samsung galaxy j sep mobile ultimate flipkart ws retail best \r\n'
p14
aS'+ excellent looks excellent looks using past days no faced issue good camera battery compared last htc phone almost same configuration \r\n'
p15
aS'+ s working good very happy using phone s working good very happy using phone good product phone working good without issue no problem seeing \r\n'
p16
aS'+ great phone great camera great performance overall good design better premium phones above class highly recommend phone better htc moto g terms display quality \r\n'
p17
aS'+ awesome did not personally product purchased relatives family bought j believe phone looks premium has good camera features cons looks big carrying makes difficult sometimes \r\n'
p18
aS'+ nice phone samsung prove very good android mobile cost rs camera quality stylish screen slim liked worth rs \r\n'
p19
aS'+ good phone good buy got delivered very next advantages being bangalore having ws retail seller ph amazing got during off offer battery very good lasted working days email sync g wifi whatsupp hr call hrs screen time far best hav used touch wiz new n lite min bloatware games were disabled cant uninstall not play games much screen bright n excellent watching videos doesnot feel bulky \r\n'
p20
aS'+ awesome phone best smartphone no heating issues touch very smooth no lags hang fast charging best battery backup played asphalt nfsmw smoothly g very fast call quality superb thing missing ambient light sensors \r\n'
p21
aS'+ best smart phone awsome phone best smart phone samsung phone looks very smart great camera quality super amoled screen best class dont waste buyin cheap brands worth buying feedback months \r\n'
p22
aS'+ best ever j best models samsung awesome looks no hang issues no heating issues amazing battery crystal clear display very fast n no lag image quality best best quality lowest price drawback speaker volum kind less ways best \r\n'
p23
aS'+ excellent phone order flipkart going through number reviews besides draw backs phone awesome performance better phones k range flipkart delivery packaging always good got phone within days \r\n'
p24
aS'+ awesome phone review months very fast processing good graphics super amoled decent sound quality nice camera \r\n'
p25
aS'+ good product samsung recently purchased phone speed good big display good clarity personal experience \r\n'
p26
aS'+ very good phone m using phone wise camera square shape s not looking cute means side not very bad samsung brand low range high range shape matter \r\n'
p27
aS'+ best ever phone samsung best camera battery speed long lasting battery blindly good service delivery flipkart overall best phone samsung \r\n'
p28
aS'+ smart phone satisfactory service flipkart budget k phone best market although got k under discount gold colour decide buy battery superb lasts more g time \r\n'
p29
aS'+ awesome product worth money j really good except sound everything mark gaming experience awesome response very fast g running good \r\n'
p30
aS'+ perfect phone expect marvellous phone probably more expect display quality mind blowing performance mark very swift handy battery last n half \r\n'
p31
aS'+ awesome bought j yesterday tell everyone best smartphone price has features half price great looks rich feel gold color works very smoothly downloads apps lightening speed good battery life doesn t heat before miss fantastic opportunity \r\n'
p32
aS'+ excellent phone used many phones life love purchase new gadgets seriously m love handset outstanding resolution touch nice sound quality both front cameras amazing very much unlike samsung handset \r\n'
p33
aS'+ excellent really good performance very good good product samsung quality really superb really worth actually slim body posch suggest everyone take golden colour gives royal \r\n'
p34
aS'+ best phone price iam using phone months s performance not drop down updation wifi automatic disconnection fixed thing don t know gb cloud storage \r\n'
p35
aS'+ excellent third phone flipkart completely love j camera brilliant both rear front front camera excellent selfie display excellent music specially via headphone nice overall fully satisfied decision buy phone \r\n'
p36
aS'+ loved especiaaly cover bought gift someone else totally loved specs great cam smooth interface fast ui response easy interface samsung provides excellent senior citizens bought mother white spouse bought rd mil thanks flipkart exchange offers big billion sale \r\n'
p37
aS'+ great phone very good phone amazing battery life super camera amoled screen very good better phones price range \r\n'
p38
aS'+ excellent very good display decent camera powerful processor t expect better brand like samsung range k \r\n'
p39
aS'+ best phone samsung range awesome display videos amazingly cool great camera great ui front flash plus point good battery better power saving modes purchased gold variant flipkart delivery very reliable before time j best phone best brand samsung price range \r\n'
p40
aS'+ totally worth money been using phone more week thoroughly satisfied performance far pros fast processor good camera good battery life pure android experience no bloatware excellent speaker water resistant not tested though dual sim slot totally satisfy phone suggest friend buy product \r\n'
p41
aS'+ value money asus has manged put very good package reasonable price liked phone premium good packaging quick charging curved easy hold gb ram intel gives fast performance display great \r\n'
p42
aS'+ greatt phone bought ze ml gb ram like camera features n prise phone awsm n r many functions phone m happy phone \r\n'
p43
aS'+ best phone affordable price perfect balance liked overall performance compared previous samsung duos no lag using apps perfect phone \r\n'
p44
aS'+ excellent smooth fast slim elegant writing review using month excellent phone blindly very elegant smooth fast problem battery drains quickly download more apps not big issue phone performance awsome \r\n'
p45
aS'+ asus best great moble lovinnng zen ui double tap wake sleep good great support taiwan brand asus \r\n'
p46
aS'+ amazing phone best performance intel atom processor far ve not faced problems till s been beast hope don t face problems good job asus \r\n'
p47
aS'+ best like purchased flipkart fully satisfied quality performance product service delivery flipkart asus zenfone best means both cameras very good pics quality very good battery backup good processing fast no lagging best prise range improvement make wonderful add flash front camera plz \r\n'
p48
aS'+ amazing stylish looks high class performance completely satisfied smooth touch great performance camera \r\n'
p49
aS'+ great phone phone since month works great no lag no hanging problem battery net speed awesome starting date hangs several time updated problem ends zenui feels different croud android \r\n'
p50
aS'+ superb using product almost wk doing gr every aspect never hangs never heats never lags handles multitasking very smoothly asus service support very good phone \r\n'
p51
aS'+ awesome phone good phone best value money purchased enjoying camera quality touch response best price segment \r\n'
p52
aS'+ awesome phone best phone between k range gb ram enough normal using except heavy game battery backup normal \r\n'
p53
aS'+ best smart phone under k thanks flipkart time delivery phone absolutely fine though gb ram since equipped ghz processor response quite amazing smooth responsive touch screen picture video quality impressive single sentence best smartphone under budget k \r\n'
p54
aS'+ vinty dec certified buyer best phone best phone bought no issues running since bought without restart solid phone extraordinary performance best camera voice quality too good wi fi cell reception exceptional gps works awesome \r\n'
p55
aS'+ good phone nice phone price range awesome camera nice built issue sims g another g g otherwise awesome phone \r\n'
p56
aS'+ great phone great specs great phone loving heating problem times not always \r\n'
p57
aS'+ superb phone no second thoughts people dont worry anything phone play machine able play high graphics game without lagging zen ui very easy handle \r\n'
p58
aS'+ impressed ordered last billiondaysales friend looked every comment here usual s difficult judge went instead phones range like lenovo moto g xiaomi mi has major heating problems \r\n'
p59
aS'+ camera quality ui amazing bought mother law very good phone no issues name camera quality ui amazing no heating issues \r\n'
p60
aS'+ pretty greate phone specs rivaling high end phones phone absolute bang buck phone check tomshardware depth review phone probably never android m does s pretty much end updates \r\n'
p61
aS'+ best mobile redmi fully customization available ui os awesome hardware good specifications camera front rear both excellent ui speed screen everything makes fall love excellent battery backup performance awsome camera \r\n'
p62
aS'+ redmi prime superb ordered th october th october heavy sale big billion offers usage days awesome phone t better price firstly noticed battery backup great man still t believe mah battery touch very sensitive camera nice sound good ui awesome features very good \r\n'
p63
aS'+ heating battery drain issue mobile produced very much heat while browsing net calling more minutes heavy battery drain issue phone not request return request thanks flipkart accept \r\n'
p64
aS'+ awesome phone usual like others spent quite lot time research buy new phone wife within k rs had few options race lenove k honor holly not keen brands looking users review decided redmi prime trust excellent phone price stylish good performance did not issues far wrt battery heating speaker phone though volume slightly low not bad still feel more worth money feel much better mine spent k \r\n'
p65
aS'+ awesome deal phone last month results very good battery backup best no heating problem bbbest buy \r\n'
p66
aS'+ performance redmi prime awesome redmi prime very good phone good performance under price front camera very good rear camera ok ok overall mobile super \r\n'
p67
aS'+ superb phone price amazing performance far not faced kind heating issue while playing mobile play games definitely heat generated very less feel xiaomi such kind manufacture listen complaint provide resolution example software updatesome mkv videos not playing gallery highlighted bugs logcats updated patch new ota update solves problem not giving features here becoz find via internet \r\n'
p68
aS'+ awesome phone k range hi using phone last weeks far good pros no heating issue general heats bit while playing hd d games good sound picture quality love watch tube videos inch perfect size fit hand pocket gb ram good ram mgmt good no lag far awesome themes gives new phone every light weight \r\n'
p69
aS'+ best segment amazing display heard miui takes lot ram s time using gb ram does help lot phone doesn t lag multitasking seamless camera best amazing picture quality battery easily lasts days moderate usage getting hours screen time heating problem not more update around mb had canvas xpress too phone beats best s range \r\n'
p70
aS'+ beast packed beauty amazing phone best class bet t beast like mi future till time t find cons gb ram gb inbuilt space low sar value beyond expectation price \r\n'
p71
aS'+ perfect buy awesome performance best option k compare brands buy same features brands price more k \r\n'
p72
aS'+ value money phone awesome excellent product xiaomi miui little bit cumbersome everyone love using phone time great battery backup hope more xiaomi \r\n'
p73
aS'+ awesome awesome flipkart exchange policy easy included almost brands models awesome flipkart offers got rs exchange cash awesome mobile itself looks like k model buy bluerock cover xiaomi redmi prime both made each \r\n'
p74
aS'+ best phone good phone fast responsive almost similar redmi s + lte gb extra memory gb extra storage made india \r\n'
p75
aS'+ good mobile price s really nice mobile buy price sure not mobile market price having much feature please check brands using assemble phone coz brands such feature like having sony samsung s camera parts used known brands \r\n'
p76
aS'+ next iphone phone jus awesome previously using windows phone friends suggested buy mobile trust guys every rupee spent phone worth \r\n'
p77
aS'+ simply superb best budget mobile good speed less k gud price placement among competitive models \r\n'
p78
aS'+ excellent phone been using extensively since oct absolutely no flaws bit heating issue used prolong periods guess price awesome \r\n'
p79
aS'+ mini beast word excellent has camera good front camera average performance amazing battery backup good gaming phone under k \r\n'
p80
aS'+ nice very good handset touch very smooth thems were amazing mobile amazing handset reasonable price \r\n'
p81
aS'+ amazing phone worth money no lag ever gameplay ignore heating problem coz like smartphones stop complaining guys not better phone redmi prime \r\n'
p82
aS'+ pretty good price m high end phone user broke iphone s friend told instead getting iphone fixed cheap later buy iphone s agreed bought phone amazed quality no apple course s pretty sturdy camera ok call quality not good \r\n'
p83
aS'+ awesome product been using three versions redmi best price no issues till sometime battery heating issues playing games longer time \r\n'
p84
aS'+ excellent worth price purchased redmi prime through flipkart got delivered within days excellent delivery feel no complaints phone been using last months minor drawback found capture photos night vision flash light photo comes lightly yellowish tint excellent ram customization gb ram gb each reboot inbuilt privacy security systems awesome \r\n'
p85
aS'+ fantastic worth buy super charge speed good battery life music sound awesume good camera functions \r\n'
p86
aS'+ superb phone buy without thinking second awesome phone price runs smooth pros no cons phone need not write anything best thing phone camera stars \r\n'
p87
aS'+ mobile really good side user interface awesome music player directly access music files kept folders both front cameras good speaker quality good overall best really nice mobile like fall love seriously \r\n'
p88
aS'+ very good phone redmi prime very good phone price like lenovo yu iam using phone last month camera good battery backup good \r\n'
p89
aS'+ good bt still really good mobile price till issues network problems not times accourding camera perfect price nd performence processor great resolve network issue awesome phone mi rs \r\n'
p90
aS'+ great phone great price best phone under been using months no issues till works smoothly apps background \r\n'
p91
aS'+ s really great mobile mobile really good side user interface awesome music player directly access music files kept folders both front cameras good speaker quality good \r\n'
p92
aS'+ nice phone loved product cam quality superb bulid quality fab problem doesn t connect pc suite except everything fine \r\n'
p93
aS'+ best phone price range using phone month n using android phone got exchange n bank offer worth call quality great rear camera nice range n didnt found heating issue n phone never hangs touch smooth screen great too alwz gb ram available using single sim d time n good battery dat dnt know battery both sim active n dont front cam ds phone cant review m happy ds phone n buying ds phone not regret decision \r\n'
p94
aS'+ best phone price best android phone features under rs not found lags phone installing high end games live modern combat asphalt camera good sound good been better speaker placed front like moto e g still price xiaomi giving unbelievable thank \r\n'
p95
aS'+ proud purchase redmi primes days gap wrote review same product rd feb nothing purchased same phone again family member u understand experience mi redmi prime refer old review rd feb \r\n'
p96
aS'+ good looking phone review very limited product detail recently started using still exploration phase phone gives good looks quite impressive display touch feature good while compared lenovo previous phone \r\n'
p97
aS'+ best phone price years usage device working completely fine no signs issues kind regular updates make deal sweeter hats off xiaomi making device \r\n'
p98
aS'+ s awesome phone totally worth bucks gorgeous display awesome camera stunning ui mind boggling specs make must phone average users under k \r\n'
p99
aS'+ awesome product blind ally purchase product phone more days service fast per price features include phone no need higher price \r\n'
p100
aS'+ awesome awesome product buy u r planning smart phone comfortable price been using frm mnths loved jst fav phone \r\n'
p101
aS'+ absolute fantastic awesome phone flipkart delivery superb nothing bad inr class phone \r\n'
p102
aS'+ good budget phone mi never disappoint better phone such low price no company such configurations price \r\n'
p103
aS'+ fantastic mobile very nice mobile good working big game run mobile no lags nothing good battery enough full good function overview very nice smart phone three set same mobile working very good plus point full support xiaomi along bugs update flipkart service very good recieved three sets before estimated time \r\n'
p104
aS'+ excellent service excellent service received phone within hours time frame committed seller phone packed good conditions using iphone last years need dual sim phone due phone solving purpose \r\n'
p105
aS'+ awesome phone brilliant display excellent ui nice sound slim light features phone been week since bought phone haven t faced issues far phone responds really doesn t feel like low priced heating issue everyone complaining doesn t occur update mb \r\n'
p106
aS'+ very good device k bought more devices mi flipkart good specially very good k build quality very good very light weight easily single hand \r\n'
p107
aS'+ mi best mobile best mobile battery life good no heating problem downloading very good while installing apps compared mobiles photo clearity best \r\n'
p108
aS'+ awesome phone mi phone best design best quality product high performance low price love phone s really awesome \r\n'
p109
aS'+ good value deal hello guys perfect phone inch display price range having awesome display performance battery life smooth touch nice camera cant more price yes heats bit heavy user not too much bearable getting k game play calls were smooth \r\n'
p110
aS'+ simply best performance really good screen very clear crisp no lags no matter much multitask sound quality fine camera quite good killer deal k almost steal \r\n'
p111
aS'+ awesome mobile heating issues never mention specs flipkart already did flipkart delivered product days booted phone others said got heated phone never gets heated too much except while charging display great phone s performance extraordinary miui buttery smooth no need extra launchers \r\n'
p112
aS'+ s best phone price ramge got phone days booking m happy design display camera didn t heating issues like many mentioned best phone s class \r\n'
p113
aS'+ superb word mi received good condition little beast great features works like solid machine apps smooth like butter \r\n'
p114
aS'+ impressions had moto g gen previously bought saw flash sale getting used stock android lollipop getting acclimatized miui difficult phone gets heated very quickly especially click pictures inbuilt apps taking too much ram gb available downer compared odd moto g phone pretty fast compact bright weightless know better using sometime \r\n'
p115
aS'+ awesome phone awesome price jabardast phone jabardast price nice screen light weight already bought different family members \r\n'
p116
aS'+ best phone price category brought darling offer flipkart within month brought more phone very smooth no lags always ready anything camera superb clarity softness pictures awesome playing full hd videos without lag battery satisfied moderate user dont play games mobile internet dialy charge enough wifi connnectivity superb very slim degined perfectly fit hand display great \r\n'
p117
aS'+ good phone bought phone rs very sleek body mi has very great display lightweight phone not premium phone k bucks price range best buy battery good cons mobile has heating problem play cpu intensive games like fifa doesn t heat games like asphalt camera average quality pics taken night \r\n'
p118
aS'+ superb phone valu money phone heating while playing games using wifi good phone analysis mobile mobile camera clarity good sound decent display superb lot facilitys phone heating \r\n'
p119
aS'+ good phone been using phone th may e approx months initially purchased phone had heating problem phone used heat quickly week purchasing phone update mb came updated phone trust resolved heating problems installed games gb gb still phone works very properly planning buy phone really worth has good display nice build nice camera miui nice no lag while playing games nice thing charges very quickly overall happy phone price tag \r\n'
p120
aS'+ excellent buy price bought phone months ago enjoyed replacing samsung duos picture quality good many options effects battery good general though not gaming perfectly happy product \r\n'
p121
aS'+ amazing phone sheer beauty long comparison opted camera qualities very good especially front camera mp very sensitive touch screen good sound has exceptionally good display did not observe overheating problem during multitasking running apps very long time u play subway surfer clash clans asphalt playing subway surfer mins while charging temperature c ok update system experienced awesome mi \r\n'
p122
aS'+ awesome phone display camera juzzzz awesome don t negative review phone awesome yes problem flipkart gave best solution best service flipkart lenovo k note mi mi far better lenovo k note perfect phone under k flipkart awesome thank flipkart \r\n'
p123
aS'+ awesome bought mi weeks before best phone ever used awesome camera stunning display good performance totally value money product \r\n'
p124
aS'+ nice phone excellent phone excellent video quality nice speed no heating hanging issues found nice battery backup \r\n'
p125
aS'+ awesome phone ui great thing lacking miui app drawer still doesn t cause problem rather ui looks great without app drawer video camera quality excellent same told non expendable problem storage lovers users ones thinking playing games play gives great gaming performance read heating issues earlier using phone summer heat c didn t face heating problems hope not face future problem feel ram memory approx gb available good thing pre installed apps uninstalled overall great value money like rating \r\n'
p126
aS'+ excellent changes finally dream phone excellent top notch best business complete features options pleasure possess mi better handsets market same price range \r\n'
p127
aS'+ awesome phone lovely phone very good smart looking price range phone very much user friendly really fast heating problem battery backup camera really good big thanks flipkart speedy delivery \r\n'
p128
aS'+ oh beauty best budget phone never used xiaomi products before never trusted chinese local indian brand mobiles proved wrong bought irrespective heating issues reviews guess fixed mb update phone s temperature never crossed degrees used odd days never faced kind issue camera clarity display gorgeous very sharp sunlight display feature phone amazing battery backup days moderate never played games t really talk \r\n'
p129
aS'+ superb thats seeing reviews many people regarding heating issue n still made call mobile features were mind blowing didnt find heating issue n charge mobile n play games device issue wrking flawless n camera \r\n'
p130
aS'+ great phone hi guys writing review almost month user great product feature rich specs more enough buck pay not faced issue heating till date touch wood feel product great doesnt feeling cheapness chineese loud speaker output bit lower camera good need bit patient taking high quality photos battery life good ok \r\n'
p131
aS'+ awesome phone best price wonderful using mi thanks flipkart giving best phone relevant price camera awesome hd display super watch simply super thanks mi no issues phone working quite brilliant slow motion camera awesome wonderful selfies too \r\n'
p132
aS'+ excellent bought during flash sale using days like excellent phone outstanding camera good screen resolution true sense value money phone strongly recommend anybody looking good phone does not pay steep price same \r\n'
p133
aS'+ worth going xiaomi mi got mobile june th delivered flipkart days worth buying model mi reviews phone mislead buyers not getting hot browse continuously more hour display very good \r\n'
p134
aS'+ excellent product purchased product days excellent packing flipkart product awesome phone no lags no heating problem great ui \r\n'
p135
aS'+ great mi true value money around rupees k same phone has been manufactured major brands like samsung htc sony lg re paying half price beautifully built phone xiaomi phone has absolutely no issues many mentioned here s not heating not before update no low ringing volume issue found loud speaker loud enough phone least device sometimes s little lag performance yes sometimes \r\n'
p136
aS'+ awesome mobile phone price updating software no heating occurs phone high display quality awesome camera front both gb enough u store many songs videos lightweight slim battery quality good \r\n'
p137
aS'+ excellent value money very happy phone battery life excellent speakers decent camera awesome overall very happy purchase flipkart delivered \r\n'
p138
aS'+ amazing phone amazing phone cyanogen k s steal deal snapdragon gb ram gb internal mp camera best phone ever \r\n'
p139
aS'+ excellent phone best phone s range great build quality sleek great display good battery life grouse read negative feedback sales service hope op improves ass phone has screen guard installed op company confirmed company installed worried initially overall good buy \r\n'
p140
aS'+ pluse best looks aswome futures attractive smart phone rear camera too good picture contrast very prominent suggest \r\n'
p141
aS'+ awesome m using cell ultimate phone good specification like suggest every awesome phone \r\n'
p142
aS'+ perfect been using opo past week love every display quality awesome phone super responsive came android based cyanogenmod received ota update lollipop based cyanogenmod battery life pretty good believe has been perfect choice \r\n'
p143
aS'+ happy oneplus happy oneplus phone product offered flipkart exactly per promise recommend purchasing smartphone \r\n'
p144
aS'+ excellent product offered price exchange offer excellent product users wish trade old devices did same got decent discount k along additional discount k sbi debit card launch offer delivered days order hope similar deal soon oneplus looking forward buy good flipkart oneplus \r\n'
p145
aS'+ good has been using past month surely good phone fast good display tough enough handle major drops feet heights had dropped thrice days still good \r\n'
p146
aS'+ excellent phone plus excellent phone flawless touch lightening fast control awesome camera quality good service flipkart too delivering phone time promised \r\n'
p147
aS'+ best phone ever best buy money pros best sound quality audiofx best camera set aperture focus mode etc cons no cons \r\n'
p148
aS'+ awesome phone bought phone through flipkart usual delivery fine phone doesnt cyanogen logo backside initially runs cyanogen android got updated cyanogen running android within hour already has screen guard top phone may maynot add extra screen guard tempered glass everything else regarding phone perfectly alright running very smooth fast phone comes charger charges phone very quickly \r\n'
p149
aS'+ very good days purchased phone using days made wise decision phone good very responsive phone lasted full days full charge value money \r\n'
p150
aS'+ every penny spent worth best product high end tech specs today expect never hangs never heats best battery cool features \r\n'
p151
aS'+ superb superb mobile thnx flipkart making available such good discounts phone better chinese brands may launch plus v might price cut phone \r\n'
p152
aS'+ good very good phone aspect little bit pricey should hv been under k con find dampens spirit buying no earphone headset comes along been using more week \r\n'
p153
aS'+ superb phone got phone week must been extremely happy phone looks awesome performs like beast has excellent camera both front camera take awesome pictures great detail quality don t phone price match opo s camera \r\n'
p154
aS'+ great phone unbelievable price very good value money camera phone truly amazing both rear front photos very clear bright surprised quality pics phone price range voice quality very good has features high end phone gb inbuilt memory phone more enough never feel need memory slot screen brightness very good very slim light weight gives good grip hold overall steal \r\n'
p155
aS'+ good specs great price phone great great specs price range phone awesome phone brilliant had expandable memory slot phone heats times during intensive processor usage times little scary \r\n'
p156
aS'+ beast close eyes buy phone without hesitation using last months answer questions samsung wanna take pic wait screen loading loads struggle camera opens + wanna take pic shot times dont wait here pics clicks battery life camera quality speed awesome grab beast hello + \r\n'
p157
aS'+ excellent full marks opo using more days performance looks ergonomic sound video connectivity makers aspects \r\n'
p158
aS'+ stunning beast never wrote review where internet since brought beast m simply love th phone starting nokia lol pretty much satisfied those bore stock android cynogenmod never make feel bored buy official oneplusone tempered glass screen protector along got remove plastic film has oneplusone directions printed another protective film comes factory put tempered glass \r\n'
p159
aS'+ best phone nothing beat phone especially price still best phone android launch battery performance awesome more hr battery life full time calls office hours n gaming music \r\n'
p160
aS'+ best android smartphone under k using device since months very happy battery lasts more wi fi full time screen great screen buttons option great apply different themes camera awesome \r\n'
p161
aS'+ awesome device good offer flipkart blackberry phone windows phone android phone never been happy flipkart support service provided did not receive charging plug along phone sad though sms charger shipped shall next indeed delighted \r\n'
p162
aS'+ oneplus used more dozen smartphones byfar best owned cyanogen mod really makes phone stand apart phone fast camera very good tons features customization options best phone price range \r\n'
p163
aS'+ nice phone worth spending much money phone faster speed great gives satisfaction money spend phone \r\n'
p164
aS'+ not expected firstly excellent recent reviews extremely hilarious exchange offer not true phone like s phone w s retails subsidiary flipkart not having stock expecting wise very fast delivery ordered rd june yet receive messages shipping contacted flipkart gave time till today today message came regarding tomorrow tomorrow delivering items store had phone quite few days phone huge battery very good irrespective screen certain limitations android system cyanogen android upgrades were less fifteen days plus real phone \r\n'
p165
aS'+ awesome mobile using phone since months not better price frank mobile equally worth k mobile best company ever \r\n'
p166
aS'+ best ever purchased phone months ago best beast market looking forward oneplus hey guys why yo sell iphone guts buy k + phone m sure buy set too mum has iphone plus doesn t bother oneplus oneplus dude guess guys flashing iphones no biggie s iphone \r\n'
p167
aS'+ amazing phone amazing phone loaded features same time donot cheap chinese feel question flipkart setting such high standards delivery big let down days ordering not yet sent mobile \r\n'
p168
aS'+ best phone within k high quality high performance device without heating issues simply amazing device initially consumer service not good india doing right \r\n'
p169
aS'+ best phone price budget right awesme phone features nearly makes nexus mobile feels great slim light weight u dont twice before buying \r\n'
p170
aS'+ cannot better been using product months very impressed every thing phone good rocking cyanogenmod os very snappy never regret purchase phone never settle \r\n'
p171
aS'+ class phone best phone ever used qualcomm snapdragon chipset g rom gb ram rs wow design class phone mass people grab \r\n'
p172
aS'+ awsome phone price no words guyz reqst u buy phone certified buyer best phone k delivered within hours flipkart pros full hd screen mp rare mp front camera good quality faster phone like moto gen nd generation red mi note long battery life used almost full g downloads still battery left touch good dolby music system awesome good sound quality no heating problem \r\n'
p173
aS'+ great device ever samsung current price range super display super touch super speed super camera super heating no sound not more decent \r\n'
p174
aS'+ best phone ever samsung samsung galaxy j great phone like another high range phone features high price phone mid range nice phone per view willing low range phone high features pls phone \r\n'
p175
aS'+ great phone value money samsung j buy samsung galaxy j phone got phone next ordered thanks ekart fast service processors samsung galaxy j has snapdragon octa core processor four cores ghz four ghz adreno graphics regions phone has ghz exynos octa core processor mali t mp gpu display \r\n'
p176
aS'+ good phone booting very good camera fine body put review sound very less sound good \r\n'
p177
aS'+ good delivery great product phone best range specially camera phone too good overall performance phone amazing suggest phone those buy mid range smartphone main features like good camera fast reliable phone comes inch display might not sound good those don t like big screen display phone great despite less ppi display phone amazing colour saturation mark battery performance surpassing bought th january experience till date satisfying \r\n'
p178
aS'+ nice product ordered phone packed nicely flipkart delivery very fast within days nice phone no complaints till camera best class no hanging problem loved \r\n'
p179
aS'+ awesome best product required features light weight battery performance good value money wsr very best retailer \r\n'
p180
aS'+ samsung galaxy j gold color awesome samsung galaxy j good budget phone awesome features has powerful octa core processor inch super amoled display metal body little con ram has low memory gb rest features very fine s camera mega very good mega selfie camera quite good bettery mah quite awesome light sensor automatic brightness not available recommend low end users \r\n'
p181
aS'+ awesome phone got phone yesterday hats off flipkart awesome delivery time coming phone build quality gb ram no bolt ware awesome ram management screen size been bigger getting inch screen honor x resolution perfect price range ppi makes much better battery life too good though having mah battery charge downloaded apps wifi used whatsapp g little bit gaming used torch used phone hours got morning battery still camera quality good gave slow motion video feature iphone more awesomeeeeee \r\n'
p182
aS'+ awesome product plus points good camera good light no lag no hanging light weight superb battery backup time delivery \r\n'
p183
aS'+ awesome product nice product motorola has seriously many area phone camera good build quality fine expecting metal body p panel looks awesome received product time thanks delivery option \r\n'
p184
aS'+ best smart phone long time user motorola smart phones starting motorola defy always love motorola phones ruggedness always lacks camera department finally motorola good camera module budget line phones camera really works natural light artificial light performance above average considering low price \r\n'
p185
aS'+ excellent peice must excellent peice must feature awesome great build quality battery performance \r\n'
p186
aS'+ best budget mobile thanks flipkart free delivery best android within k display camera lenovo k note slightly better performance battery though mah enough backup last important ipx water resistance \r\n'
p187
aS'+ superb mobile had phone within budget k k confused between many options like lenovo k note samsung j mi etc phone launched impressed features specifications ordered taking chance got moto g rd gen phone time good delivery flipkart usual extensively using phone iam giving reviews order help guys thnking purchasing phone \r\n'
p188
aS'+ great phone within price tag been using phone since month build quality really premium faced no lags battery battery backup really good easily lasts medium usage charging fast gaming game play smooth graphic hungry games such asphalt etc display display crisp ppi earlier used phone super amoled screen personally feel amoled better ips lcd screen \r\n'
p189
aS'+ very nice laptop notebook very excellent performance quality flipkart delivered days awesome packing battery backup nice those looking laptop k surely best buy \r\n'
p190
aS'+ awesome product wil ut very happy buy product awesome product donot miss chance found product while price hp showroom very smooth speaker good thing wrong seller dont laptop acessories hp showroom like screen gaurd keygaurd protector mouse etc overall awesome product range colour aiso good keyboard awesome thnks seller deliverd limited period time good battery backup \r\n'
p191
aS'+ awesome product worth money packaging flipkart awesome going product pro s slim light weight processing cons sound not loud \r\n'
p192
aS'+ good budget option pros k best tb hard disk gb ram windows amd apu good cons no backlit keys speakers placed bottom above mentioned cons overall nice product \r\n'
p193
aS'+ awesome product awesome price point received new notebook within days ordering package protected safely packaged lappy took minutes intial setup pros win offers smooth experience looks premium cross brush design tb space stuff regularly lappy feels cool continuous usage hours though cell battery offers hours continuous browsing wifi \r\n'
p194
aS'+ best value money purchased laptop delivered been using ever since observations pros performance ok basic office applications running another os inside vmware runs very smoothly build quality good no heating issues encountered normal usage no gaming additional software cyberlink pre installed along bloatware excellent sale service hp \r\n'
p195
aS'+ awesome deal looking amd based lappy found notebook much research gives performance like much cheaper rate thanks flipkart got awesome deal ie big billion exchange offer through got almost k discount thanks flipkart btw birthday present through research online found those play graphics demanding games should intel processors those graphic demanding softwares movie editing matlab etc amd best choice picked notebook gives good performance super fast booting shut down decent battery backup wont stuck while playing hd movies while operating battery case old compaq notebook windows awesome altogether superb deal \r\n'
p196
aS'+ value money product very good suitable students doing engineering vacant ram slot means upgrading ram system run lag free while running heavy ide s like visual studio eclipse \r\n'
p197
aS'+ awesome product great price purchased laptop rs bbd lot waiting searching buy laptop specs u pay more k market laptop avail hp store k thanks flipkart \r\n'
p198
aS'+ best laptop price best laptop price support high graphics games like nfs run gb portal has nice slim \r\n'
p199
aS'+ best buy got under k totally worth buy don t laptop bag s ok guess good laptop bag pack rs flipkart keyboard super comfortable track pad very responsive has stereo speaker bottom quite descent display quality good handle heavy tasks easily m reviewing laptop using around three months \r\n'
p200
aS'+ awesome product awesome device works very windows amd processor very good product guys pro s win offers smooth experience looks premium cross brush design tb space stuff regularly lappy feels cool continuous usage hours though cell battery offers hours continuous browsing wi fi light weight \r\n'
p201
aS'+ best laptop range hi purchased laptop flipkart laptop very excellent under price looking laptop under budget very happy using more month working great \r\n'
p202
aS'+ good configuration purchased product last month till working fine without issues no heating problem original window os processor too fast thank flipkart another best service \r\n'
p203
aS'+ great laptop must buy those looking great laptop under k winddows amazing ms office not included ll buy \r\n'
p204
aS'+ good laptop good price excited once saw offer product rs placed order immediately got delivered very next night highly appreciated really worthy amount paid \r\n'
p205
aS'+ perfect laptop everyday s perfect laptop everyday forget crap hear being better amd won t notice bit difference unless atomic clock calculate milliseconds amazing graphics smooth performance no heating decent battery backup couldn t asked more price flipkart service excellent \r\n'
p206
aS'+ awesome product hp hp af au notebook best awesome product price range looking handsome tb hard dis gb ram battery backup good hours besides sound very nice everything nice product disappointment no light keypad \r\n'
p207
aS'+ good product worth buy bought laptop through friends credit card product delivered before estimated time arrival laptop looks very attractive inner designs awesome outer silver cross pattern good speakers camera keyboard good entire design really good amd processor laptop really working good been month no lag same intel need not worry considering intel purchasing laptop update bios mhz originally u recieve mhz requires good internet connection update windows really awesome \r\n'
p208
aS'+ best laptop nothing best laptop under k u good screen battery life good fullsize keyword good touchpad windows outofthebox tb hard drive amd quad core processor much better intel amd radeon graphics processor gb ram u best laptop brand hp no cons used subscribe youtube channel chaitanyadivshikar name youtube channel going review laptop don t not listen others comment false specs false product totally originally hp product \r\n'
p209
aS'+ awesome bought rs awsom laptop nice performance better th gen awsom battery backup upto hours normal usage \r\n'
p210
aS'+ great product value money awesome laptop great features super performance aesthetically looks super good design fast performance great display very good battery backup super fast processing speed play heavy games without graphic issues value money \r\n'
p211
aS'+ value money met expectations never thought getting laptop spec cost everything pre installed except msoffice activation far happy product \r\n'
p212
aS'+ excellent performance not gaming multitasking matters browsing office multimedia where zero found whole experience using notebook par intel powered laptop basic purposes sometimes need good laptop basic \r\n'
p213
aS'+ good product lower price good product cheaper rate intel highly demand amd same compared intel waited long good product lowest rate finally find gb ram tb hdd need estimates such specifications budget thanks flipkart valuable product discounts \r\n'
p214
aS'+ best under k price no heating issue compared earlier model however due mcafee antivirus while scanning cpu bar raises disc utilization raises mcafee comes pre installed reduces laptop performance scanning takes lots time around hours tb during times cannot extra become further slow purchased symantec antivirus scans quickly where cpu disc utilization always lower helps laptop scale faster application \r\n'
p215
aS'+ great laptop superb performance good price great windows os good smooth laptop having fine design colour performance good quad core processor gb ram tb hard drive s great especially lot stuff pc overall recommended great performance pricing good \r\n'
p216
aS'+ excellent took time write review post purchasing product however worth wait fabulous product checked hp customer care gave serial number confirmed product given genuine product covered under fact assisted partitioning hard drive helped configuring hp printer too kudoos confirmed product genuine registered hp hence support easily available mentioned earlier paragraph excellent product compared specifications competitors cost wise very economical \r\n'
p217
aS'+ amazing service flipkart nice product hp laptop nice loaded win fast enough booting compared win win battery backup amazing no heating issues long duration screen resolution fantastic above fast delivery flipkart \r\n'
p218
aS'+ good value money havent yet used product much however limited feel product good value money got fro including exchange bonus \r\n'
p219
aS'+ nice product bought laptop home fits n fulfills basic needs media bit worth every penny u spend \r\n'
p220
aS'+ great laptop cheapest laptop range u not professional requiring high end computing avid gamer u should amd processors great general boot time less hard believe found no cons pros cheap great display tb hard disk lot space windows hp diwali offer great years warranty \r\n'
p221
aS'+ nice laptop really nice light weight laptop win user friendly bought laptop fast delivered packing good condition \r\n'
p222
aS'+ great performance stylish looks windows ordered laptop thanks flipkart delivered time good package im amazed stylish design looks laptop esp cross brush pattern keyboard built good very simple steps start configure windows takes time configuring settings login boots really fast shutdown very quick used lenovo earlier angle viewing really great amazing display no heating issues usage no gaming sound output nice quick responsive touch pad did not check battery backup till \r\n'
p223
aS'+ best budget laptop everything working fine best laptop price segment loved amd processor working like processor boot time less sec overall best price \r\n'
p224
aS'+ very decent laptop good daily battery backup wifi ~ hours something good sound quality speaker worst however sennheiser hp works fine \r\n'
p225
aS'+ great product bought big billion around k sbi debit card discounted product till yet writing review specially recomend buy no heating great display play games daily heavy office home performing best \r\n'
p226
aS'+ great value review written very laptop don t false reviews people voiced opinions laptop merely reading laptop presents excellent value money precisely looking configuration much better normally price been couple days since ve had delivered flipkart m running windows without issues like rightly mentioned last reviewer build quality great really happy purchase \r\n'
p227
aS'+ great product people please confirm before posting second laptop previously owned another lenovo performed better old cheaper rate simply love laptop writing review very same more month using great gaming played games like far cry assassin s creed unity counter strike global offensive maximum graphical settings possible no lag read reviews stated has bad screen grading issue has gb graphics not true assure display good enough does gb graphics wa\x85 expand \r\n'
p228
aS'+ beast bought laptop mainly gaming been using since last month has done great service lenovo done played dmc ultra graphics although optimized like recommend game lovers tight budget \r\n'
p229
aS'+ awesome phone great job flipkart phone great kind huge others covered case pretty much waste order new screen gorgeous battery life amazing overall very happy phone phone delayed got refund k delao however flipkart really nailed delivery delivered night before diwali pm awesome diwali gift flipkart \r\n'
p230
aS'+ beast best android smartphone till date s smooth display awesome color reproduction very very good charges really fast looks stunnng premium worth everyone \r\n'
p231
aS'+ best android phone flagship killer really friends very happy phone budget k best class specs course leading nexus pure android world thanks flipkart quality service delivery both \r\n'
p232
aS'+ best android phone right period premium looks great feel hand good battery great camera display flawless performance fingerprint sensor works good \r\n'
p233
aS'+ excellent android phone excellent phone no complains best android phone present switched nexus huge improvement camera battery backup \r\n'
p234
aS'+ nice product very faster htc products using iphone s photo quality similar features nice speed using games multitasking impressive \r\n'
p235
aS'+ great phone phone gb ram gb rom excellent features mediatek mt octa core strong processor handles multiple tasks not make feel using phone gb ram excellent camera quality rare front good battery backup mediatek mt processor keeps close eye battery draining makes energy efficient \r\n'
p236
aS'+ veery good phone price range received before month ego product found very good condition original working properly no doubt kind great phone price range excellent phone \r\n'
p237
aS'+ awsme phone purshed shop phone quality awsme no hang very fast speed looks very beautifull looking awsme sound awsme battery backup very good opinion phone brand may bettar configuration less price brand brand set \r\n'
p238
aS'+ good product using product very good product camera quality good battry backup not bad fully satisfied phone \r\n'
p239
aS'+ good very good touch rem r good install game high quality performance r goood mery coool good moobile \r\n'
p240
aS'+ good phone htc review certified buyer great phone phone gb ram gb rom excellent features mediatek mt octa core strong processor handles multiple tasks not make feel using phone gb ram excellent camera quality rare front good battery backup mediatek mt processor keeps close eye battery draining makes energy efficient \r\n'
p241
aS'+ great phone fall love htc really great phone stylish mobile cum tablet screen size inches nice handsome display camera perfect voice clarity no hanging problem writing review using days hardly product blindly \r\n'
p242
aS'+ excellent phone excellent delivery excellent product wife has not complained yet though quite apprehensive online purchase had trust ws retail set delivered timely properly thank flipkart ws retail \r\n'
p243
aS'+ very good awesome product im ways love htc vary nice product worth money vary good recommend \r\n'
p244
aS'+ awesome phone s been since ve got phone like thank flipkart prompt service ve received phone within span days device packed htc device highly recommendable device elegant looks touch swift camera s quality more awesome ve read few bad reviews regarding camera s quality those completely ignored battery backup efficient sound quality good ve not encountered problem device opt phone without second thought \r\n'
p245
aS'+ good phone bought phone days far performance good main camera gives brilliant pictures front camera not mark though has gb ram speed good battery takes long time full charge once fully charged stands days decent phone range preferred htc camera enjoying \r\n'
p246
aS'+ great phone worth buy phone amazing looks excellent rear camera fabulous display absolutely no lagging month great touch front camera good selfies not much sharper camera like megapixel rear ones due classy design n sleek body fits easily hands cons battery backup average charge twice buying power bank good solution r hard user headphones supplied mere average good calls speaker sound low overall great deal happy buy \r\n'
p247
aS'+ excellent phone using phone last month faced no problem very cool looks very light weigth sleek design though battery ram specs low performance very good device standby time very good does not unnecessary consumes battery normal usage easily runs days camera very good speed awesome better purchase phone purchasing those sub standard phones like moto g nd gen red mi etc many defects \r\n'
p248
aS'+ awesome extremely good product good durability product htc nd company world company make mobile phone company best product always never compromise quality performance \r\n'
p249
aS'+ good best dilemma month choose between black berry htc finally got display touch looks camera takes good constraint battery life days manageable camera amazing really don t regret getting \r\n'
p250
aS'- product not described no silver color default plastic color mentioned silver color phone quality not good screen broken bed during sleep \r\n'
p251
aS'- don t buy battery life worst charring more hours battery die hours speaker worst\r\n'
p252
aS'- weeks mobile stopped working no sound unable return to\r\n'
p253
aS'- very poor quality product times did not receiving calls charging pin not working properly recently burned too should \r\n'
p254
aS'- not good phone battery backup poor low sound while picking call takes long time process takes long time open play list stored pictures \r\n'
p255
aS'- nice mobile nice price purchased mobile week s sound bad effort suggest please choose samsung type essential phone \r\n'
p256
aS'- mobile received faulty asked replacement replaced mobile faulty problem poor reception poor transmission tested sim caller gets message phone unavailable asked refund refund amount shown zero product replaced free refund amount should rs \r\n'
p257
aS'- worst product s four months mobile conked off cannot service centre near very worst makes difference between nokia micro max never buy phone don t star product without star cannot post review hence giving star\r\n'
p258
aS'- hav ordered not shows display returned got money long time\r\n'
p259
aS'- mobile s damaged not working months date purchase cant return no warranty \r\n'
p260
aS'- app not good don t like app waiting hours not deal mobile phone order deal \r\n'
p261
aS'- please not buy phone waste money speakers very bad pressing keys hard headphone not good \r\n'
p262
aS'- newbie world amazon opened account last week product went micromax x gift mother birthday unfortunately mobile charger faulty really frustrating bought shop got instant replacement here iam wasting time more week waiting new piece arrive nothing mother birthday bad experience timer hope new piece good \r\n'
p263
aS'- music playing good while call recieving speaker very very very poor\r\n'
p264
aS'- very very poor cell s charger not charging hind typing not working \r\n'
p265
aS'- worst product micromax battery worst microphone far worst \r\n'
p266
aS'- very bad mobile sound not clear nokia best basic mobile set\r\n'
p267
aS'- s not gud phone u buy new basic ph nokia samsung\r\n'
p268
aS'- product not good battery less hour not good\r\n'
p269
aS'- s bed product don t amazone customer care not responce \r\n'
p270
aS'- worst mobile sound not great put rs better one\r\n'
p271
aS'- microphone bad cant hear does caller say\r\n'
p272
aS'- got order days very disappointed \r\n'
p273
aS'- no volume adjustment rengtone s tooo low \r\n'
p274
aS'- received defective piece display not working \r\n'
p275
aS'- not good piece times not reachable \r\n'
p276
aS'- bettery low single not mark \r\n'
p277
aS'- worse mobile please dont purchace this\r\n'
p278
aS'- very poor quality term sound visual\r\n'
p279
aS'- worst product micromax cant worst today received package phone built quality very cheap continiously hangs nd restarts not able phone started return recomend every better product littele bit higher price \r\n'
p280
aS'- sound mobile very poor\r\n'
p281
aS'- phone not working properly \r\n'
p282
aS'- display not working till now\r\n'
p283
aS'- not worthy rs bucks\r\n'
p284
aS'- phone not working good thought replacing not worth money mobile automatically turning off voice not clear\r\n'
p285
aS'- not buy \r\n'
p286
aS'- sound very bad\r\n'
p287
aS'- batery problem \r\n'
p288
aS'- very poor \r\n'
p289
aS'- never recommend product \r\n'
p290
aS'- defective\r\n'
p291
aS'- waste\r\n'
p292
aS'- very low quality fm radio not working sd card slot damage while inciting sd card very low quality \r\n'
p293
aS'- bad\r\n'
p294
aS'- never buy phone\r\n'
p295
aS'- defictve mobile karbonn k not charing properly spekar not working using total loss money \r\n'
p296
aS'- worst phone within days starts hanging while calling receiving calls automatically call diverting nw t return date over\r\n'
p297
aS'- please not value money time s faulty product doesn t allow save contacts hangs cheap material \r\n'
p298
aS'- screen phone lost display unable phone incoming calls month since bought phone\r\n'
p299
aS'- very very good product surprise gift full toilet face owner disgausting\r\n'
p300
aS'- not good product returned mobile dont waste ur time money \r\n'
p301
aS'- phone started showing power third within half hour fully charging phone \r\n'
p302
aS'- no handsfree received music player not working song list not being refresh overall wastage money \r\n'
p303
aS'- no vibration mode times switch offed while speaking bad mobilephone dont buy mobile phone \r\n'
p304
aS'- poor quality s second sim coverage damaged within days no clarity speak hear\r\n'
p305
aS'- very less network grasping power cl connection cut talking time very bad money wated\r\n'
p306
aS'- dear customare product defective no buy product buy product prolemb battery not change again not start \r\n'
p307
aS'- ring tone volume too much low not vibration mode\r\n'
p308
aS'- phone not proper working replace hand hand \r\n'
p309
aS'- not able hear received calls speaker not working \r\n'
p310
aS'- horrible does not met expectation all\r\n'
p311
aS'- worst phone using \r\n'
p312
aS'- phone stopped working wothin days\r\n'
p313
aS'- got garbage instead phone \r\n'
p314
aS'- undesire iam sad this\r\n'
p315
aS'- phone signaling problem\r\n'
p316
aS'- very very bad mobile phone\r\n'
p317
aS'- totaly waste money\r\n'
p318
aS'- utter waste product\r\n'
p319
aS'- not working\r\n'
p320
aS'- very bad mob\r\n'
p321
aS'- not displayed\r\n'
p322
aS'- worst product\r\n'
p323
aS'- no earphones\r\n'
p324
aS'- not good cannot used none sims used working phone has thrown not repaired lost money time losing money ordering phone through amazone\r\n'
p325
aS'- not good\r\n'
p326
aS'- very bad\r\n'
p327
aS'- device not compatible no high ringtone sounds media charger not working properly headset unable wear not satisfied mobile waste money investing product \r\n'
p328
aS'- phone not working properly keeps searching network shows blank screen frequent auto shut down \r\n'
p329
aS'- bought phone rs very poor sound quality replaced phone thanks amazon easy return policy decided return nd piece refund won t recommend phone phone \r\n'
p330
aS'- very big problem both cellphones both same cellphone gonna switched off n speaker problem experience micromax hope good please solve problem\r\n'
p331
aS'- phone did not vibration mode must old age man same not mentioned amazon truly upset \r\n'
p332
aS'- provide damaged product\r\n'
p333
aS'- dont buy mobile phone soon buy within months display problem charger problem\r\n'
p334
aS'- worst mobile pls dont buy having mic problem pls try samsung nokia mobile\r\n'
p335
aS'- worst hand set ringing volume very low loud speaker volume low kindly tell customers not purchase hand set \r\n'
p336
aS'- don t purchase mobile s not connected network\r\n'
p337
aS'- bad mobile\r\n'
p338
aS'- not working expected hindi keys not functioning properly \r\n'
p339
aS'- sound very low packing not good don t buy wont recommend anyone comparing local mobile shop phone sound low local store has same product good sound feel something wrong product stars able \r\n'
p340
aS'- poor\r\n'
p341
aS'- purchased basic purpose calling not met expectation call quality very poor \r\n'
p342
aS'- low sound\r\n'
p343
aS'- very bad product\r\n'
p344
aS'- simply unjustified highly disgusting \r\n'
p345
aS'- bought mobile came charge headphone m really surprised micromax sell mobile without charger please aware before buying mobile without charger headphone\r\n'
p346
aS'- purchased longer battery backup not satisfied product micromax not providing charger too bad company tendency third class \r\n'
p347
aS'- don t buy phone not having charger manufacturer doesn t common sense ordinary person having charger\r\n'
p348
aS'- mobile nice not given charger earphone not mention charger earphone yes no returning process very bad\r\n'
p349
aS'- where charger headphones ok charger headphones allocated given summary \r\n'
p350
aS'- comes no charger no headphone n comes not box packet like chocolate packet felt bad coz micromax doesn t provide charger n headphone less rate mobiles coz brands provide assecciores every mobile \r\n'
p351
aS'- complete acssosiries pakt phone not charger not ear phones\r\n'
p352
aS'- receved handset not receved headphone charger plz procede requition\r\n'
p353
aS'- no vibration atert feature ordered returned \r\n'
p354
aS'- ringer ain t great missing calls due bad output ringer \r\n'
p355
aS'- not received charger phone neither handsfree \r\n'
p356
aS'- vibration fichter not available mobile not good \r\n'
p357
aS'- not giving star s product phone no charger no ear phones cheating costmers \r\n'
p358
aS'- not good expected quality products very low\r\n'
p359
aS'- mobile good did t received charger headset \r\n'
p360
aS'- useless no charger has been given company side \r\n'
p361
aS'- charger mah battery\r\n'
p362
aS'- no charger\r\n'
p363
aS'- worst phone ever seen please don t buy \r\n'
p364
aS'- worst mobile doesn t vibrate mode \r\n'
p365
aS'- no charger no ear phone\r\n'
p366
aS'- mobile charger eyer fone not available\r\n'
p367
aS'- not worth no charger no ear phone package\r\n'
p368
aS'- no charger no earphones mobile\r\n'
p369
aS'- no charger not rating star \r\n'
p370
aS'- voice disturbance calls \r\n'
p371
aS'- headphone charger not shipped\r\n'
p372
aS'- average phone battery not good\r\n'
p373
aS'- not worth buying product\r\n'
p374
aS'- charger not \r\n'
p375
aS'- vabration not here\r\n'
p376
aS'- waste money\r\n'
p377
aS'- not good \r\n'
p378
aS'- waste \r\n'
p379
aS'- not good\r\n'
p380
aS'- product cost more greater compared shoping sites like ebay askme etc \r\n'
p381
aS'- t imagine mobile without vibrator too low ringing sound sold mobile collogue days don t purchase otherwise regret \r\n'
p382
aS'- hanging problem no keys remove battery \r\n'
p383
aS'- battary life talktime claimed false voice not clear bad product not suggest anyone buy product \r\n'
p384
aS'- bad phone press phone got switch off not good deal between days problem came replaced phone \r\n'
p385
aS'- month product display not service center micromax reply mobile already opened unofficial mechanic reply guarantee period not working here anymore seller cloudtail responsible gonna shutdown activity amazon too \r\n'
p386
aS'- don t like service product provided very disappointed \r\n'
p387
aS'- phone not good volume voice very low hands free put ear similarly search name put letter nothing put second letter thing else not worth price baught another geoinee l nice hand set \r\n'
p388
aS'- received faulty product earphone not working beginning considering price good functions not user friendly very tough find simple options \r\n'
p389
aS'- hardware substandard battery claim mh mere joke phone days regret purchase poor quality product \r\n'
p390
aS'- micromax should improve speaker good sound rather fooling people loading abundle features budget phone where no features properly \r\n'
p391
aS'- time purchase product received minute display problem occur return product sender\r\n'
p392
aS'- u pls send bill recipt bcoz phone not working properly send email id registered u \r\n'
p393
aS'- not satisfy product has headphone single ear speaker damage piece\r\n'
p394
aS'- phone ordered dual sim cdma+gsm compared received gsm +gsm did not satisfy purpose had away maid free no ordering mobiles here product received totally different shown while ordering \r\n'
p395
aS'- quality product not good voice not clear while taking phone not prefer \r\n'
p396
aS'- good mobile prize dual gsm mobile don t purchase cdma purpose \r\n'
p397
aS'- article not worth volume too low mobile like serves no purpose \r\n'
p398
aS'- no waste mobile no words review worst mobile \r\n'
p399
aS'- not recommended ring tone very low heats within mins \r\n'
p400
aS'- instead providing mm ear phone jack usb cable point it\r\n'
p401
aS'- battery not getting fully charged\r\n'
p402
aS'- did not complete product single ear plug\r\n'
p403
aS'- wast money battery not getting fully charged\r\n'
p404
aS'- sound quality verry poor battry backup verry poor\r\n'
p405
aS'- very bad shipping very long time consuming\r\n'
p406
aS'- not buy guyz s sersly\r\n'
p407
aS'- very bad phone please don t purchase\r\n'
p408
aS'- bettiry iswaste waste peace\r\n'
p409
aS'- key pad not working month\r\n'
p410
aS'- features ok phone hearing purpose whats mobile person cant hear voice side \r\n'
p411
aS'- battery not working\r\n'
p412
aS'- very bad product \r\n'
p413
aS'- not good quality\r\n'
p414
aS'- not good \r\n'
p415
aS'- had purchased phone few days ago mother really bad thing don t charger purchase mobile phone body sell mobile phone without charger shocking not recommend body purchase hand set \r\n'
p416
aS'- no charger usb headphone mentioned package consists phone battery warranty card manual \r\n'
p417
aS'- no option negative marks therefore min star \r\n'
p418
aS'- product defective never like it\r\n'
p419
aS'- product orderd not given charger value less phone without charger hw far good\r\n'
p420
aS'- charger headphones missing packege\r\n'
p421
aS'- charger not attached parcel received\r\n'
p422
aS'- hey guys product not good battery not working properly while charging phone full hours empty shows low battery notification \r\n'
p423
aS'- mobile not touch screen mentioned technical details no charger provided no handsfree no datacable very worst product micromax dont buy product waste money returned \r\n'
p424
aS'- big surprise no charger headphone dont given zero star \r\n'
p425
aS'- mobile not detecting memory problem board unable replace battery life less \r\n'
p426
aS'- sound quality very poor keypad very poor too plz dont buy this\r\n'
p427
aS'- o star bcoz not geting chrger n ear phn \r\n'
p428
aS'- no charger product does charge phone\r\n'
p429
aS'- received no display returned next \r\n'
p430
aS'- no charger no usb charging\r\n'
p431
aS'- s very bad working sim not working\r\n'
p432
aS'- bad product battary doesn t properly\r\n'
p433
aS'- worst battery life charge too slowly \r\n'
p434
aS'- worst phone ever no charger handsfree\r\n'
p435
aS'- didn t gave charger n headphones wit it\r\n'
p436
aS'- complaint not satisfied \r\n'
p437
aS'- without charger headphone\r\n'
p438
aS'- no accessories \r\n'
p439
aS'- battery waste no atall\r\n'
p440
aS'- very poor battery backup \r\n'
p441
aS'- cheap quality product\r\n'
p442
aS'- don t buy d s phone\r\n'
p443
aS'- not convenient\r\n'
p444
aS'- battrey backup not good courier person bad\r\n'
p445
aS'- not good\r\n'
p446
aS'- highly priced basic phone music word not justified music playing enability doesn t meets expectations not worth money\r\n'
p447
aS'- not good defective model switches off automatically once off doesnt switch until plugged charger \r\n'
p448
aS'- very very dissapointed f didnt expect samsung brand amaon should quality check products makes user hesitate buy next time online \r\n'
p449
aS'- worst product samsumg difficult dere no option making calls both sim u call sim u make call sim sim u need long press key switch sim cards difficult operate yr old man phone youngsters \r\n'
p450
aS'- m really irritated coz received duplicate product eaga world checked friend mobile found mobile duplicate below list problems weight product light compared original memory cards not supporting keypad very worst major problem sound quality too bad identify mobile duplicate compare original phone sound finally requested return materials request amazon identify duplicate sellers \r\n'
p451
aS'- aa worst phone battory capacity buy phone m not satisfied model iam using days sell d olx rs\r\n'
p452
aS'- don t buyl samsung cell\r\n'
p453
aS'- voice quality very very bad not clear phone disconnected while conversation \r\n'
p454
aS'- phone makes noise every min beep really annoying night whenever call please don t buy \r\n'
p455
aS'- waste money no bluetooth\r\n'
p456
aS'- beep sound switch display light every mins took service centre couldn t rectify issue really bugged phone d night every mins beep irritates \r\n'
p457
aS'- very bad very poor speaker quality battery backup not upto mark \r\n'
p458
aS'- bluetooth not available u put memory card process phone getting slow \r\n'
p459
aS'- not mark\r\n'
p460
aS'- little low price box paid disappointing\r\n'
p461
aS'- reception voice quality worst need take service center \r\n'
p462
aS'- not good phone signal strength vry week \r\n'
p463
aS'- disturbed receiving calls mic disfunction \r\n'
p464
aS'- product undilivered utter disappointment \r\n'
p465
aS'- wrong quality product voice not clear\r\n'
p466
aS'- speaker phone very bad \r\n'
p467
aS'- s too much costly real market\r\n'
p468
aS'- very high price compair market\r\n'
p469
aS'- damage product need exchange\r\n'
p470
aS'- product good amozone return policy not good talk customer care told return device return amount rs mobile cost rs \r\n'
p471
aS'- waste mobile purchased\r\n'
p472
aS'- features too bad\r\n'
p473
aS'- mobile has gone blank no speaker volume call samsung guru music need refund asap \r\n'
p474
aS'- not working proper\r\n'
p475
aS'- won t not recommend people purchase product via bhikshu telecom package really bad worst expected\r\n'
p476
aS'- poor\r\n'
p477
aS'- regular customer amazon buy something almost every month time got defective piece phone not able detect earphones tried check many earphones not working purchased phone particularly listen music workplace does not allow bring smartphone money wasted \r\n'
p478
aS'- very bad\r\n'
p479
aS'- not good\r\n'
p480
aS'- sound quality very bad\r\n'
p481
aS'- s fake product \r\n'
p482
aS'- executive delivers product didn t care doing door step delivery happy product received\r\n'
p483
aS'- waste\r\n'
p484
aS'- delivery slow \r\n'
p485
aS'- battery not run half hour though battery not run whole day\r\n'
p486
aS'- worst product received defective phone had bad experience phone amazon \r\n'
p487
aS'- not satisfy\r\n'
p488
aS'- bad phone no bluetooth no internet options no value money\r\n'
p489
aS'- disappointed received defective piece mobile not detecting network signal show no service kept same sim another mobile working full signal very unhappy product \r\n'
p490
aS'- karbon mobiles problem loudspeaker not audible camera very bad worst mobile ever seen \r\n'
p491
aS'- not good built returning today phone had scratches already need step amazon s packing quality \r\n'
p492
aS'- sometimes phone hanging tried return order not taken why dont know \r\n'
p493
aS'- call sound too low rest ok \r\n'
p494
aS'- very bulky totally different features compared shown site please not buy \r\n'
p495
aS'- got defective piece returned amazon dint refund disappointed\r\n'
p496
aS'- defect piece received keypad not working numbers returned product \r\n'
p497
aS'- bad product very chip feel made plastic bulky \r\n'
p498
aS'- not good product problem software\r\n'
p499
aS'- very bad not replacing don t buy \r\n'
p500
a.